; ModuleID = '42/71.c'
source_filename = "42/71.c"
target datalayout = "e-m:e-p270:32:32-p271:32:32-p272:64:64-i64:64-f80:128-n8:16:32:64-S128"
target triple = "x86_64-pc-linux-gnu"

@.str = private unnamed_addr constant [3 x i8] c"%d\00", align 1
@.str.1 = private unnamed_addr constant [4 x i8] c"%d \00", align 1

; Function Attrs: noinline nounwind uwtable
define dso_local i32 @main() #0 {
  %1 = alloca i32, align 4
  %2 = alloca i32, align 4
  %3 = alloca i32, align 4
  %4 = alloca i32, align 4
  %5 = alloca i32, align 4
  %6 = alloca i32, align 4
  %7 = alloca i32, align 4
  %8 = alloca i32, align 4
  %9 = alloca i32, align 4
  %10 = alloca i8*, align 8
  %11 = alloca i64, align 8
  store i32 0, i32* %1, align 4
  %12 = call i32 (i8*, ...) @__isoc99_scanf(i8* getelementptr inbounds ([3 x i8], [3 x i8]* @.str, i64 0, i64 0), i32* %2)
  %13 = load i32, i32* %2, align 4
  store i32 %13, i32* %9, align 4
  %14 = load i32, i32* %9, align 4
  %15 = zext i32 %14 to i64
  %16 = call i8* @llvm.stacksave()
  store i8* %16, i8** %10, align 8
  %17 = alloca i32, i64 %15, align 16
  store i64 %15, i64* %11, align 8
  store i32 0, i32* %3, align 4
  br label %18

18:                                               ; preds = %28, %0
  %19 = load i32, i32* %3, align 4
  %20 = load i32, i32* %2, align 4
  %21 = sub nsw i32 %20, 1
  %22 = icmp sle i32 %19, %21
  br i1 %22, label %23, label %31

23:                                               ; preds = %18
  %24 = load i32, i32* %3, align 4
  %25 = sext i32 %24 to i64
  %26 = getelementptr inbounds i32, i32* %17, i64 %25
  %27 = call i32 (i8*, ...) @__isoc99_scanf(i8* getelementptr inbounds ([3 x i8], [3 x i8]* @.str, i64 0, i64 0), i32* %26)
  br label %28

28:                                               ; preds = %23
  %29 = load i32, i32* %3, align 4
  %30 = add nsw i32 %29, 1
  store i32 %30, i32* %3, align 4
  br label %18

31:                                               ; preds = %18
  %32 = call i32 (i8*, ...) @__isoc99_scanf(i8* getelementptr inbounds ([3 x i8], [3 x i8]* @.str, i64 0, i64 0), i32* %4)
  store i32 0, i32* %7, align 4
  store i32 0, i32* %5, align 4
  br label %33

33:                                               ; preds = %82, %31
  %34 = load i32, i32* %5, align 4
  %35 = load i32, i32* %2, align 4
  %36 = sub nsw i32 %35, 1
  %37 = icmp sle i32 %34, %36
  br i1 %37, label %38, label %85

38:                                               ; preds = %33
  br label %39

39:                                               ; preds = %78, %38
  %40 = load i32, i32* %5, align 4
  %41 = sext i32 %40 to i64
  %42 = getelementptr inbounds i32, i32* %17, i64 %41
  %43 = load i32, i32* %42, align 4
  %44 = load i32, i32* %4, align 4
  %45 = icmp eq i32 %43, %44
  br i1 %45, label %46, label %81

46:                                               ; preds = %39
  %47 = load i32, i32* %5, align 4
  store i32 %47, i32* %6, align 4
  br label %48

48:                                               ; preds = %62, %46
  %49 = load i32, i32* %6, align 4
  %50 = load i32, i32* %2, align 4
  %51 = sub nsw i32 %50, 2
  %52 = icmp sle i32 %49, %51
  br i1 %52, label %53, label %65

53:                                               ; preds = %48
  %54 = load i32, i32* %6, align 4
  %55 = add nsw i32 %54, 1
  %56 = sext i32 %55 to i64
  %57 = getelementptr inbounds i32, i32* %17, i64 %56
  %58 = load i32, i32* %57, align 4
  %59 = load i32, i32* %6, align 4
  %60 = sext i32 %59 to i64
  %61 = getelementptr inbounds i32, i32* %17, i64 %60
  store i32 %58, i32* %61, align 4
  br label %62

62:                                               ; preds = %53
  %63 = load i32, i32* %6, align 4
  %64 = add nsw i32 %63, 1
  store i32 %64, i32* %6, align 4
  br label %48

65:                                               ; preds = %48
  %66 = load i32, i32* %4, align 4
  %67 = icmp ne i32 %66, 0
  br i1 %67, label %68, label %73

68:                                               ; preds = %65
  %69 = load i32, i32* %2, align 4
  %70 = sub nsw i32 %69, 1
  %71 = sext i32 %70 to i64
  %72 = getelementptr inbounds i32, i32* %17, i64 %71
  store i32 0, i32* %72, align 4
  br label %78

73:                                               ; preds = %65
  %74 = load i32, i32* %2, align 4
  %75 = sub nsw i32 %74, 1
  %76 = sext i32 %75 to i64
  %77 = getelementptr inbounds i32, i32* %17, i64 %76
  store i32 1, i32* %77, align 4
  br label %78

78:                                               ; preds = %73, %68
  %79 = load i32, i32* %7, align 4
  %80 = add nsw i32 %79, 1
  store i32 %80, i32* %7, align 4
  br label %39

81:                                               ; preds = %39
  br label %82

82:                                               ; preds = %81
  %83 = load i32, i32* %5, align 4
  %84 = add nsw i32 %83, 1
  store i32 %84, i32* %5, align 4
  br label %33

85:                                               ; preds = %33
  store i32 0, i32* %8, align 4
  br label %86

86:                                               ; preds = %99, %85
  %87 = load i32, i32* %8, align 4
  %88 = load i32, i32* %2, align 4
  %89 = load i32, i32* %7, align 4
  %90 = sub nsw i32 %88, %89
  %91 = sub nsw i32 %90, 1
  %92 = icmp slt i32 %87, %91
  br i1 %92, label %93, label %102

93:                                               ; preds = %86
  %94 = load i32, i32* %8, align 4
  %95 = sext i32 %94 to i64
  %96 = getelementptr inbounds i32, i32* %17, i64 %95
  %97 = load i32, i32* %96, align 4
  %98 = call i32 (i8*, ...) @printf(i8* getelementptr inbounds ([4 x i8], [4 x i8]* @.str.1, i64 0, i64 0), i32 %97)
  br label %99

99:                                               ; preds = %93
  %100 = load i32, i32* %8, align 4
  %101 = add nsw i32 %100, 1
  store i32 %101, i32* %8, align 4
  br label %86

102:                                              ; preds = %86
  %103 = load i32, i32* %8, align 4
  %104 = sext i32 %103 to i64
  %105 = getelementptr inbounds i32, i32* %17, i64 %104
  %106 = load i32, i32* %105, align 4
  %107 = call i32 (i8*, ...) @printf(i8* getelementptr inbounds ([3 x i8], [3 x i8]* @.str, i64 0, i64 0), i32 %106)
  store i32 0, i32* %1, align 4
  %108 = load i8*, i8** %10, align 8
  call void @llvm.stackrestore(i8* %108)
  %109 = load i32, i32* %1, align 4
  ret i32 %109
}

declare dso_local i32 @__isoc99_scanf(i8*, ...) #1

; Function Attrs: nounwind
declare i8* @llvm.stacksave() #2

declare dso_local i32 @printf(i8*, ...) #1

; Function Attrs: nounwind
declare void @llvm.stackrestore(i8*) #2


!llvm.module.flags = !{!0}
!llvm.ident = !{!1}

!0 = !{i32 1, !"wchar_size", i32 4}
!1 = !{!"clang version 10.0.0-4ubuntu1 "}
